target datalayout = "e-m:e-p270:32:32-p271:32:32-p272:64:64-i64:64-i128:128-f80:128-n8:16:32:64-S128"
target triple = "x86_64-pc-linux-gnu"

%struct.buf_t = type { i32, ptr, i32, i32, i8, i8 }

@.str.1 = private unnamed_addr constant [7 x i8] c"pack.c\00", align 1
@__func__.unpack16_array = private unnamed_addr constant [15 x i8] c"unpack16_array\00", align 1

; Function Attrs: inlinehint nounwind uwtable
define internal zeroext i16 @__bswap_16(i16 noundef zeroext %0) #8 {
  %2 = alloca i16, align 2
  store i16 %0, ptr %2, align 2
  %3 = load i16, ptr %2, align 2
  %4 = zext i16 %3 to i32
  %5 = ashr i32 %4, 8
  %6 = and i32 %5, 255
  %7 = load i16, ptr %2, align 2
  %8 = zext i16 %7 to i32
  %9 = and i32 %8, 255
  %10 = shl i32 %9, 8
  %11 = or i32 %6, %10
  %12 = trunc i32 %11 to i16
  ret i16 %12
}

; Function Attrs: inlinehint nounwind uwtable
define internal i32 @__bswap_32(i32 noundef %0) #8 {
  %2 = alloca i32, align 4
  store i32 %0, ptr %2, align 4
  %3 = load i32, ptr %2, align 4
  %4 = and i32 %3, -16777216
  %5 = lshr i32 %4, 24
  %6 = load i32, ptr %2, align 4
  %7 = and i32 %6, 16711680
  %8 = lshr i32 %7, 8
  %9 = or i32 %5, %8
  %10 = load i32, ptr %2, align 4
  %11 = and i32 %10, 65280
  %12 = shl i32 %11, 8
  %13 = or i32 %9, %12
  %14 = load i32, ptr %2, align 4
  %15 = and i32 %14, 255
  %16 = shl i32 %15, 24
  %17 = or i32 %13, %16
  ret i32 %17
}

; Function Attrs: nounwind uwtable
define dso_local i32 @unpack16(ptr noundef %0, ptr noundef %1) #0 {
  %3 = alloca i32, align 4
  %4 = alloca ptr, align 8
  %5 = alloca ptr, align 8
  %6 = alloca i16, align 2
  %7 = alloca i32, align 4
  store ptr %0, ptr %4, align 8
  store ptr %1, ptr %5, align 8
  call void @llvm.lifetime.start.p0(i64 2, ptr %6) #9
  %8 = load ptr, ptr %5, align 8
  %9 = getelementptr inbounds nuw %struct.buf_t, ptr %8, i32 0, i32 2
  %10 = load i32, ptr %9, align 8
  %11 = load ptr, ptr %5, align 8
  %12 = getelementptr inbounds nuw %struct.buf_t, ptr %11, i32 0, i32 3
  %13 = load i32, ptr %12, align 4
  %14 = sub i32 %10, %13
  %15 = zext i32 %14 to i64
  %16 = icmp ult i64 %15, 2
  br i1 %16, label %17, label %18

17:                                               ; preds = %2
  store i32 -1, ptr %3, align 4
  store i32 1, ptr %7, align 4
  br label %36

18:                                               ; preds = %2
  %19 = load ptr, ptr %5, align 8
  %20 = getelementptr inbounds nuw %struct.buf_t, ptr %19, i32 0, i32 1
  %21 = load ptr, ptr %20, align 8
  %22 = load ptr, ptr %5, align 8
  %23 = getelementptr inbounds nuw %struct.buf_t, ptr %22, i32 0, i32 3
  %24 = load i32, ptr %23, align 4
  %25 = zext i32 %24 to i64
  %26 = getelementptr inbounds nuw i8, ptr %21, i64 %25
  call void @llvm.memcpy.p0.p0.i64(ptr align 2 %6, ptr align 1 %26, i64 2, i1 false)
  %27 = load i16, ptr %6, align 2
  %28 = call zeroext i16 @__bswap_16(i16 noundef zeroext %27)
  %29 = load ptr, ptr %4, align 8
  store i16 %28, ptr %29, align 2
  %30 = load ptr, ptr %5, align 8
  %31 = getelementptr inbounds nuw %struct.buf_t, ptr %30, i32 0, i32 3
  %32 = load i32, ptr %31, align 4
  %33 = zext i32 %32 to i64
  %34 = add i64 %33, 2
  %35 = trunc i64 %34 to i32
  store i32 %35, ptr %31, align 4
  store i32 0, ptr %3, align 4
  store i32 1, ptr %7, align 4
  br label %36

36:                                               ; preds = %18, %17
  call void @llvm.lifetime.end.p0(i64 2, ptr %6) #9
  %37 = load i32, ptr %3, align 4
  ret i32 %37
}

; Function Attrs: nounwind uwtable
define dso_local i32 @unpack32(ptr noundef %0, ptr noundef %1) #0 {
  %3 = alloca i32, align 4
  %4 = alloca ptr, align 8
  %5 = alloca ptr, align 8
  %6 = alloca i32, align 4
  %7 = alloca i32, align 4
  store ptr %0, ptr %4, align 8
  store ptr %1, ptr %5, align 8
  call void @llvm.lifetime.start.p0(i64 4, ptr %6) #9
  %8 = load ptr, ptr %5, align 8
  %9 = getelementptr inbounds nuw %struct.buf_t, ptr %8, i32 0, i32 2
  %10 = load i32, ptr %9, align 8
  %11 = load ptr, ptr %5, align 8
  %12 = getelementptr inbounds nuw %struct.buf_t, ptr %11, i32 0, i32 3
  %13 = load i32, ptr %12, align 4
  %14 = sub i32 %10, %13
  %15 = zext i32 %14 to i64
  %16 = icmp ult i64 %15, 4
  br i1 %16, label %17, label %18

17:                                               ; preds = %2
  store i32 -1, ptr %3, align 4
  store i32 1, ptr %7, align 4
  br label %36

18:                                               ; preds = %2
  %19 = load ptr, ptr %5, align 8
  %20 = getelementptr inbounds nuw %struct.buf_t, ptr %19, i32 0, i32 1
  %21 = load ptr, ptr %20, align 8
  %22 = load ptr, ptr %5, align 8
  %23 = getelementptr inbounds nuw %struct.buf_t, ptr %22, i32 0, i32 3
  %24 = load i32, ptr %23, align 4
  %25 = zext i32 %24 to i64
  %26 = getelementptr inbounds nuw i8, ptr %21, i64 %25
  call void @llvm.memcpy.p0.p0.i64(ptr align 4 %6, ptr align 1 %26, i64 4, i1 false)
  %27 = load i32, ptr %6, align 4
  %28 = call i32 @__bswap_32(i32 noundef %27)
  %29 = load ptr, ptr %4, align 8
  store i32 %28, ptr %29, align 4
  %30 = load ptr, ptr %5, align 8
  %31 = getelementptr inbounds nuw %struct.buf_t, ptr %30, i32 0, i32 3
  %32 = load i32, ptr %31, align 4
  %33 = zext i32 %32 to i64
  %34 = add i64 %33, 4
  %35 = trunc i64 %34 to i32
  store i32 %35, ptr %31, align 4
  store i32 0, ptr %3, align 4
  store i32 1, ptr %7, align 4
  br label %36

36:                                               ; preds = %18, %17
  call void @llvm.lifetime.end.p0(i64 4, ptr %6) #9
  %37 = load i32, ptr %3, align 4
  ret i32 %37
}

; Function Attrs: nounwind uwtable
define dso_local i32 @unpack16_array(ptr noundef %0, ptr noundef %1, ptr noundef %2) #0 {
  %4 = alloca i32, align 4
  %5 = alloca ptr, align 8
  %6 = alloca ptr, align 8
  %7 = alloca ptr, align 8
  %8 = alloca i64, align 8
  %9 = alloca i64, align 8
  %10 = alloca i32, align 4
  %11 = alloca i32, align 4
  store ptr %0, ptr %5, align 8
  store ptr %1, ptr %6, align 8
  store ptr %2, ptr %7, align 8
  %12 = load ptr, ptr %5, align 8
  store ptr null, ptr %12, align 8
  br label %13

13:                                               ; preds = %3
  %14 = load ptr, ptr %6, align 8
  %15 = load ptr, ptr %7, align 8
  %16 = call i32 @unpack32(ptr noundef %14, ptr noundef %15)
  %17 = icmp ne i32 %16, 0
  br i1 %17, label %18, label %19

18:                                               ; preds = %13
  br label %71

19:                                               ; preds = %13
  br label %20

20:                                               ; preds = %19
  br label %21

21:                                               ; preds = %20
  call void @llvm.lifetime.start.p0(i64 8, ptr %8) #9
  %22 = load ptr, ptr %6, align 8
  %23 = load i32, ptr %22, align 4
  %24 = zext i32 %23 to i64
  store i64 %24, ptr %8, align 8
  call void @llvm.lifetime.start.p0(i64 8, ptr %9) #9
  store i64 2, ptr %9, align 8
  %25 = load i64, ptr %8, align 8
  %26 = icmp ne i64 %25, 0
  br i1 %26, label %27, label %30

27:                                               ; preds = %21
  %28 = load i64, ptr %9, align 8
  %29 = icmp ne i64 %28, 0
  br i1 %29, label %32, label %30

30:                                               ; preds = %27, %21
  %31 = load ptr, ptr %5, align 8
  store ptr null, ptr %31, align 8
  br label %40

32:                                               ; preds = %27
  %33 = load i64, ptr %8, align 8
  %34 = load i64, ptr %9, align 8
  %35 = call ptr @slurm_xcalloc(i64 noundef %33, i64 noundef %34, i1 noundef zeroext true, i1 noundef zeroext true, ptr noundef @.str.1, i32 noundef 604, ptr noundef @__func__.unpack16_array)
  %36 = load ptr, ptr %5, align 8
  store ptr %35, ptr %36, align 8
  %37 = icmp ne ptr %35, null
  br i1 %37, label %39, label %38

38:                                               ; preds = %32
  store i32 4, ptr %10, align 4
  br label %41

39:                                               ; preds = %32
  br label %40

40:                                               ; preds = %39, %30
  store i32 0, ptr %10, align 4
  br label %41

41:                                               ; preds = %38, %40
  call void @llvm.lifetime.end.p0(i64 8, ptr %9) #9
  call void @llvm.lifetime.end.p0(i64 8, ptr %8) #9
  %42 = load i32, ptr %10, align 4
  switch i32 %42, label %75 [
    i32 0, label %43
    i32 4, label %71
  ]

43:                                               ; preds = %41
  br label %44

44:                                               ; preds = %43
  call void @llvm.lifetime.start.p0(i64 4, ptr %11) #9
  store i32 0, ptr %11, align 4
  br label %45

45:                                               ; preds = %65, %44
  %46 = load i32, ptr %11, align 4
  %47 = load ptr, ptr %6, align 8
  %48 = load i32, ptr %47, align 4
  %49 = icmp ult i32 %46, %48
  br i1 %49, label %51, label %50

50:                                               ; preds = %45
  store i32 7, ptr %10, align 4
  br label %68

51:                                               ; preds = %45
  br label %52

52:                                               ; preds = %51
  %53 = load ptr, ptr %5, align 8
  %54 = load ptr, ptr %53, align 8
  %55 = load i32, ptr %11, align 4
  %56 = zext i32 %55 to i64
  %57 = getelementptr inbounds nuw i16, ptr %54, i64 %56
  %58 = load ptr, ptr %7, align 8
  %59 = call i32 @unpack16(ptr noundef %57, ptr noundef %58)
  %60 = icmp ne i32 %59, 0
  br i1 %60, label %61, label %62

61:                                               ; preds = %52
  store i32 4, ptr %10, align 4
  br label %68

62:                                               ; preds = %52
  br label %63

63:                                               ; preds = %62
  br label %64

64:                                               ; preds = %63
  br label %65

65:                                               ; preds = %64
  %66 = load i32, ptr %11, align 4
  %67 = add i32 %66, 1
  store i32 %67, ptr %11, align 4
  br label %45, !llvm.loop !13

68:                                               ; preds = %61, %50
  call void @llvm.lifetime.end.p0(i64 4, ptr %11) #9
  %69 = load i32, ptr %10, align 4
  switch i32 %69, label %75 [
    i32 7, label %70
    i32 4, label %71
  ]

70:                                               ; preds = %68
  store i32 0, ptr %4, align 4
  br label %73

71:                                               ; preds = %68, %41, %18
  %72 = load ptr, ptr %5, align 8
  call void @slurm_xfree(ptr noundef %72)
  store i32 -1, ptr %4, align 4
  br label %73

73:                                               ; preds = %71, %70
  %74 = load i32, ptr %4, align 4
  ret i32 %74

75:                                               ; preds = %68, %41
  unreachable
}