; Function Attrs: nounwind uwtable
define dso_local range(i32 -1, 1) i32 @unpack16_array(ptr noundef initializes((0, 8)) %0, ptr noundef captures(none) %1, ptr noundef captures(none) %2) #0 {
  store ptr null, ptr %0, align 8
  %4 = getelementptr inbounds nuw i8, ptr %2, i64 16
  %5 = load i32, ptr %4, align 8
  %6 = getelementptr inbounds nuw i8, ptr %2, i64 20
  %7 = load i32, ptr %6, align 4
  %8 = sub i32 %5, %7
  %9 = icmp ult i32 %8, 4
  br i1 %9, label %unpack32.exit, label %10

10:                                               ; preds = %3
  %11 = getelementptr inbounds nuw i8, ptr %2, i64 8
  %12 = load ptr, ptr %11, align 8
  %13 = zext i32 %7 to i64
  %14 = getelementptr inbounds nuw i8, ptr %12, i64 %13
  %.0.copyload.i = load i32, ptr %14, align 1
  %15 = tail call noundef i32 @llvm.bswap.i32(i32 %.0.copyload.i)
  store i32 %15, ptr %1, align 4
  %16 = load i32, ptr %6, align 4
  %17 = add i32 %16, 4
  store i32 %17, ptr %6, align 4
  %18 = load i32, ptr %1, align 4
  %.not23 = icmp eq i32 %18, 0
  br i1 %.not23, label %19, label %20

19:                                               ; preds = %10
  store ptr null, ptr %0, align 8
  br label %23

20:                                               ; preds = %10
  %21 = zext i32 %18 to i64
  %22 = tail call ptr @slurm_xcalloc(i64 noundef %21, i64 noundef 2, i1 noundef zeroext true, i1 noundef zeroext true, ptr noundef nonnull @.str.1, i32 noundef 604, ptr noundef nonnull @__func__.unpack16_array) #14
  store ptr %22, ptr %0, align 8
  %.not24 = icmp eq ptr %22, null
  br i1 %.not24, label %unpack32.exit, label %23

23:                                               ; preds = %19, %20
  %24 = load i32, ptr %1, align 4
  %.not = icmp eq i32 %24, 0
  br i1 %.not, label %unpack16.exit.thread36, label %.lr.ph

.lr.ph:                                           ; preds = %23
  %.pre = load i32, ptr %6, align 4
  br label %25

25:                                               ; preds = %.lr.ph, %30
  %26 = phi i32 [ %.pre, %.lr.ph ], [ %37, %30 ]
  %indvars.iv = phi i64 [ 0, %.lr.ph ], [ %indvars.iv.next, %30 ]
  %27 = load i32, ptr %4, align 8
  %28 = sub i32 %27, %26
  %29 = icmp ult i32 %28, 2
  br i1 %29, label %unpack32.exit, label %30

30:                                               ; preds = %25
  %31 = load ptr, ptr %0, align 8
  %32 = getelementptr inbounds nuw i16, ptr %31, i64 %indvars.iv
  %33 = load ptr, ptr %11, align 8
  %34 = zext i32 %26 to i64
  %35 = getelementptr inbounds nuw i8, ptr %33, i64 %34
  %.0.copyload.i28 = load i16, ptr %35, align 1
  %rev.i.i = tail call noundef i16 @llvm.bswap.i16(i16 %.0.copyload.i28)
  store i16 %rev.i.i, ptr %32, align 2
  %36 = load i32, ptr %6, align 4
  %37 = add i32 %36, 2
  store i32 %37, ptr %6, align 4
  %indvars.iv.next = add nuw nsw i64 %indvars.iv, 1
  %38 = load i32, ptr %1, align 4
  %39 = zext i32 %38 to i64
  %40 = icmp samesign ult i64 %indvars.iv.next, %39
  br i1 %40, label %25, label %unpack16.exit.thread36, !llvm.loop !13

unpack32.exit:                                    ; preds = %25, %20, %3
  tail call void @slurm_xfree(ptr noundef nonnull %0) #14
  br label %unpack16.exit.thread36

unpack16.exit.thread36:                           ; preds = %30, %23, %unpack32.exit
  %.021 = phi i32 [ -1, %unpack32.exit ], [ 0, %23 ], [ 0, %30 ]
  ret i32 %.021
}